target datalayout = "e-m:e-p270:32:32-p271:32:32-p272:64:64-i64:64-i128:128-f80:128-n8:16:32:64-S128"
target triple = "x86_64-pc-linux-gnu"

%struct.hb_ot_name_entry_t = type { i32, %union._hb_var_int_t, ptr }
%union._hb_var_int_t = type { i32 }

; Function Attrs: mustprogress uwtable
define internal noundef i32 @_ZN2OTL25_hb_ot_name_entry_cmp_keyEPKvS1_b(ptr noundef %0, ptr noundef %1, i1 noundef zeroext %2) #0 {
  %4 = alloca i32, align 4
  %5 = alloca ptr, align 8
  %6 = alloca ptr, align 8
  %7 = alloca i8, align 1
  %8 = alloca ptr, align 8
  %9 = alloca ptr, align 8
  %10 = alloca ptr, align 8
  %11 = alloca ptr, align 8
  %12 = alloca i32, align 4
  store ptr %0, ptr %5, align 8
  store ptr %1, ptr %6, align 8
  %13 = zext i1 %2 to i8
  store i8 %13, ptr %7, align 1
  %14 = load ptr, ptr %5, align 8
  store ptr %14, ptr %8, align 8
  %15 = load ptr, ptr %6, align 8
  store ptr %15, ptr %9, align 8
  %16 = load ptr, ptr %8, align 8
  %17 = getelementptr inbounds %struct.hb_ot_name_entry_t, ptr %16, i32 0, i32 0
  %18 = load i32, ptr %17, align 8
  %19 = load ptr, ptr %9, align 8
  %20 = getelementptr inbounds %struct.hb_ot_name_entry_t, ptr %19, i32 0, i32 0
  %21 = load i32, ptr %20, align 8
  %22 = icmp ne i32 %18, %21
  br i1 %22, label %23, label %31

23:                                               ; preds = %3
  %24 = load ptr, ptr %8, align 8
  %25 = getelementptr inbounds %struct.hb_ot_name_entry_t, ptr %24, i32 0, i32 0
  %26 = load i32, ptr %25, align 8
  %27 = load ptr, ptr %9, align 8
  %28 = getelementptr inbounds %struct.hb_ot_name_entry_t, ptr %27, i32 0, i32 0
  %29 = load i32, ptr %28, align 8
  %30 = sub i32 %26, %29
  store i32 %30, ptr %4, align 4
  br label %81

31:                                               ; preds = %3
  %32 = load ptr, ptr %8, align 8
  %33 = getelementptr inbounds %struct.hb_ot_name_entry_t, ptr %32, i32 0, i32 2
  %34 = load ptr, ptr %33, align 8
  %35 = load ptr, ptr %9, align 8
  %36 = getelementptr inbounds %struct.hb_ot_name_entry_t, ptr %35, i32 0, i32 2
  %37 = load ptr, ptr %36, align 8
  %38 = icmp eq ptr %34, %37
  br i1 %38, label %39, label %40

39:                                               ; preds = %31
  store i32 0, ptr %4, align 4
  br label %81

40:                                               ; preds = %31
  %41 = load ptr, ptr %8, align 8
  %42 = getelementptr inbounds %struct.hb_ot_name_entry_t, ptr %41, i32 0, i32 2
  %43 = load ptr, ptr %42, align 8
  %44 = icmp ne ptr %43, null
  br i1 %44, label %46, label %45

45:                                               ; preds = %40
  store i32 -1, ptr %4, align 4
  br label %81

46:                                               ; preds = %40
  %47 = load ptr, ptr %9, align 8
  %48 = getelementptr inbounds %struct.hb_ot_name_entry_t, ptr %47, i32 0, i32 2
  %49 = load ptr, ptr %48, align 8
  %50 = icmp ne ptr %49, null
  br i1 %50, label %52, label %51

51:                                               ; preds = %46
  store i32 1, ptr %4, align 4
  br label %81

52:                                               ; preds = %46
  %53 = load ptr, ptr %8, align 8
  %54 = getelementptr inbounds %struct.hb_ot_name_entry_t, ptr %53, i32 0, i32 2
  %55 = load ptr, ptr %54, align 8
  %56 = call ptr @hb_language_to_string(ptr noundef %55)
  store ptr %56, ptr %10, align 8
  %57 = load ptr, ptr %9, align 8
  %58 = getelementptr inbounds %struct.hb_ot_name_entry_t, ptr %57, i32 0, i32 2
  %59 = load ptr, ptr %58, align 8
  %60 = call ptr @hb_language_to_string(ptr noundef %59)
  store ptr %60, ptr %11, align 8
  %61 = load ptr, ptr %10, align 8
  %62 = load ptr, ptr %11, align 8
  %63 = call i32 @strcmp(ptr noundef %61, ptr noundef %62) #15
  store i32 %63, ptr %12, align 4
  %64 = load i8, ptr %7, align 1
  %65 = trunc i8 %64 to i1
  br i1 %65, label %79, label %66

66:                                               ; preds = %52
  %67 = load i32, ptr %12, align 4
  %68 = icmp ne i32 %67, 0
  br i1 %68, label %69, label %79

69:                                               ; preds = %66
  %70 = load ptr, ptr %9, align 8
  %71 = getelementptr inbounds %struct.hb_ot_name_entry_t, ptr %70, i32 0, i32 2
  %72 = load ptr, ptr %71, align 8
  %73 = load ptr, ptr %8, align 8
  %74 = getelementptr inbounds %struct.hb_ot_name_entry_t, ptr %73, i32 0, i32 2
  %75 = load ptr, ptr %74, align 8
  %76 = call i32 @hb_language_matches(ptr noundef %72, ptr noundef %75)
  %77 = icmp ne i32 %76, 0
  br i1 %77, label %78, label %79

78:                                               ; preds = %69
  store i32 0, ptr %4, align 4
  br label %81

79:                                               ; preds = %69, %66, %52
  %80 = load i32, ptr %12, align 4
  store i32 %80, ptr %4, align 4
  br label %81

81:                                               ; preds = %79, %78, %51, %45, %39, %23
  %82 = load i32, ptr %4, align 4
  ret i32 %82
}

; Function Attrs: mustprogress uwtable
define internal noundef i32 @_ZN2OTL21_hb_ot_name_entry_cmpEPKvS1_(ptr noundef %0, ptr noundef %1) #0 {
  %3 = alloca i32, align 4
  %4 = alloca ptr, align 8
  %5 = alloca ptr, align 8
  %6 = alloca i32, align 4
  %7 = alloca ptr, align 8
  %8 = alloca ptr, align 8
  store ptr %0, ptr %4, align 8
  store ptr %1, ptr %5, align 8
  %9 = load ptr, ptr %4, align 8
  %10 = load ptr, ptr %5, align 8
  %11 = call noundef i32 @_ZN2OTL25_hb_ot_name_entry_cmp_keyEPKvS1_b(ptr noundef %9, ptr noundef %10, i1 noundef zeroext true)
  store i32 %11, ptr %6, align 4
  %12 = load i32, ptr %6, align 4
  %13 = icmp ne i32 %12, 0
  br i1 %13, label %14, label %16

14:                                               ; preds = %2
  %15 = load i32, ptr %6, align 4
  store i32 %15, ptr %3, align 4
  br label %67

16:                                               ; preds = %2
  %17 = load ptr, ptr %4, align 8
  store ptr %17, ptr %7, align 8
  %18 = load ptr, ptr %5, align 8
  store ptr %18, ptr %8, align 8
  %19 = load ptr, ptr %7, align 8
  %20 = getelementptr inbounds %struct.hb_ot_name_entry_t, ptr %19, i32 0, i32 1
  %21 = getelementptr inbounds [2 x i16], ptr %20, i64 0, i64 0
  %22 = load i16, ptr %21, align 4
  %23 = zext i16 %22 to i32
  %24 = load ptr, ptr %8, align 8
  %25 = getelementptr inbounds %struct.hb_ot_name_entry_t, ptr %24, i32 0, i32 1
  %26 = getelementptr inbounds [2 x i16], ptr %25, i64 0, i64 0
  %27 = load i16, ptr %26, align 4
  %28 = zext i16 %27 to i32
  %29 = icmp ne i32 %23, %28
  br i1 %29, label %30, label %42

30:                                               ; preds = %16
  %31 = load ptr, ptr %7, align 8
  %32 = getelementptr inbounds %struct.hb_ot_name_entry_t, ptr %31, i32 0, i32 1
  %33 = getelementptr inbounds [2 x i16], ptr %32, i64 0, i64 0
  %34 = load i16, ptr %33, align 4
  %35 = zext i16 %34 to i32
  %36 = load ptr, ptr %8, align 8
  %37 = getelementptr inbounds %struct.hb_ot_name_entry_t, ptr %36, i32 0, i32 1
  %38 = getelementptr inbounds [2 x i16], ptr %37, i64 0, i64 0
  %39 = load i16, ptr %38, align 4
  %40 = zext i16 %39 to i32
  %41 = sub nsw i32 %35, %40
  store i32 %41, ptr %3, align 4
  br label %67

42:                                               ; preds = %16
  %43 = load ptr, ptr %7, align 8
  %44 = getelementptr inbounds %struct.hb_ot_name_entry_t, ptr %43, i32 0, i32 1
  %45 = getelementptr inbounds [2 x i16], ptr %44, i64 0, i64 1
  %46 = load i16, ptr %45, align 2
  %47 = zext i16 %46 to i32
  %48 = load ptr, ptr %8, align 8
  %49 = getelementptr inbounds %struct.hb_ot_name_entry_t, ptr %48, i32 0, i32 1
  %50 = getelementptr inbounds [2 x i16], ptr %49, i64 0, i64 1
  %51 = load i16, ptr %50, align 2
  %52 = zext i16 %51 to i32
  %53 = icmp ne i32 %47, %52
  br i1 %53, label %54, label %66

54:                                               ; preds = %42
  %55 = load ptr, ptr %7, align 8
  %56 = getelementptr inbounds %struct.hb_ot_name_entry_t, ptr %55, i32 0, i32 1
  %57 = getelementptr inbounds [2 x i16], ptr %56, i64 0, i64 1
  %58 = load i16, ptr %57, align 2
  %59 = zext i16 %58 to i32
  %60 = load ptr, ptr %8, align 8
  %61 = getelementptr inbounds %struct.hb_ot_name_entry_t, ptr %60, i32 0, i32 1
  %62 = getelementptr inbounds [2 x i16], ptr %61, i64 0, i64 1
  %63 = load i16, ptr %62, align 2
  %64 = zext i16 %63 to i32
  %65 = sub nsw i32 %59, %64
  store i32 %65, ptr %3, align 4
  br label %67

66:                                               ; preds = %42
  store i32 0, ptr %3, align 4
  br label %67

67:                                               ; preds = %66, %54, %30, %14
  %68 = load i32, ptr %3, align 4
  ret i32 %68
}