; Function Attrs: mustprogress uwtable
define internal noundef i32 @_ZN2OTL21_hb_ot_name_entry_cmpEPKvS1_(ptr nocapture noundef readonly %0, ptr nocapture noundef readonly %1) #0 {
  %3 = load i32, ptr %0, align 8
  %4 = load i32, ptr %1, align 8
  %.not24.i = icmp eq i32 %3, %4
  br i1 %.not24.i, label %7, label %5

5:                                                ; preds = %2
  %6 = sub i32 %3, %4
  br label %_ZN2OTL25_hb_ot_name_entry_cmp_keyEPKvS1_b.exit

7:                                                ; preds = %2
  %8 = getelementptr inbounds i8, ptr %0, i64 8
  %9 = load ptr, ptr %8, align 8
  %10 = getelementptr inbounds i8, ptr %1, i64 8
  %11 = load ptr, ptr %10, align 8
  %12 = icmp eq ptr %9, %11
  br i1 %12, label %_ZN2OTL25_hb_ot_name_entry_cmp_keyEPKvS1_b.exit.thread23, label %13

13:                                               ; preds = %7
  %.not25.i = icmp eq ptr %9, null
  br i1 %.not25.i, label %_ZN2OTL25_hb_ot_name_entry_cmp_keyEPKvS1_b.exit.thread, label %14

14:                                               ; preds = %13
  %.not26.i = icmp eq ptr %11, null
  br i1 %.not26.i, label %_ZN2OTL25_hb_ot_name_entry_cmp_keyEPKvS1_b.exit.thread, label %15

15:                                               ; preds = %14
  %16 = tail call ptr @hb_language_to_string(ptr noundef nonnull %9)
  %17 = load ptr, ptr %10, align 8
  %18 = tail call ptr @hb_language_to_string(ptr noundef %17)
  %19 = tail call i32 @strcmp(ptr noundef nonnull dereferenceable(1) %16, ptr noundef nonnull dereferenceable(1) %18) #17
  br label %_ZN2OTL25_hb_ot_name_entry_cmp_keyEPKvS1_b.exit

_ZN2OTL25_hb_ot_name_entry_cmp_keyEPKvS1_b.exit:  ; preds = %5, %15
  %.0.i = phi i32 [ %6, %5 ], [ %19, %15 ]
  %.not = icmp eq i32 %.0.i, 0
  br i1 %.not, label %_ZN2OTL25_hb_ot_name_entry_cmp_keyEPKvS1_b.exit.thread23, label %_ZN2OTL25_hb_ot_name_entry_cmp_keyEPKvS1_b.exit.thread

_ZN2OTL25_hb_ot_name_entry_cmp_keyEPKvS1_b.exit.thread23: ; preds = %7, %_ZN2OTL25_hb_ot_name_entry_cmp_keyEPKvS1_b.exit
  %20 = getelementptr inbounds i8, ptr %0, i64 4
  %21 = load i16, ptr %20, align 4
  %22 = getelementptr inbounds i8, ptr %1, i64 4
  %23 = load i16, ptr %22, align 4
  %.not19 = icmp eq i16 %21, %23
  br i1 %.not19, label %28, label %24

24:                                               ; preds = %_ZN2OTL25_hb_ot_name_entry_cmp_keyEPKvS1_b.exit.thread23
  %25 = zext i16 %23 to i32
  %26 = zext i16 %21 to i32
  %27 = sub nsw i32 %26, %25
  br label %_ZN2OTL25_hb_ot_name_entry_cmp_keyEPKvS1_b.exit.thread

28:                                               ; preds = %_ZN2OTL25_hb_ot_name_entry_cmp_keyEPKvS1_b.exit.thread23
  %29 = getelementptr inbounds i8, ptr %0, i64 6
  %30 = load i16, ptr %29, align 2
  %31 = getelementptr inbounds i8, ptr %1, i64 6
  %32 = load i16, ptr %31, align 2
  %.not20 = icmp eq i16 %30, %32
  br i1 %.not20, label %_ZN2OTL25_hb_ot_name_entry_cmp_keyEPKvS1_b.exit.thread, label %33

33:                                               ; preds = %28
  %34 = zext i16 %32 to i32
  %35 = zext i16 %30 to i32
  %36 = sub nsw i32 %35, %34
  br label %_ZN2OTL25_hb_ot_name_entry_cmp_keyEPKvS1_b.exit.thread

_ZN2OTL25_hb_ot_name_entry_cmp_keyEPKvS1_b.exit.thread: ; preds = %14, %13, %28, %_ZN2OTL25_hb_ot_name_entry_cmp_keyEPKvS1_b.exit, %33, %24
  %.0 = phi i32 [ %27, %24 ], [ %36, %33 ], [ %.0.i, %_ZN2OTL25_hb_ot_name_entry_cmp_keyEPKvS1_b.exit ], [ 0, %28 ], [ 1, %14 ], [ -1, %13 ]
  ret i32 %.0
}